target datalayout = "e-m:e-p270:32:32-p271:32:32-p272:64:64-i64:64-i128:128-f80:128-n8:16:32:64-S128"
target triple = "x86_64-pc-linux-gnu"

%class.rational = type { %class.mpq }
%class.mpq = type { %class.mpz, %class.mpz }
%class.mpz = type { i32, i8, ptr }
%"class.dd::pdd" = type { i32, ptr }

; Function Attrs: mustprogress uwtable
define linkonce_odr hidden void @_ZNK2dd3pddmlERK8rational(ptr dead_on_unwind noalias writable sret(%"class.dd::pdd") align 8 %0, ptr noundef nonnull align 8 dereferenceable(16) %1, ptr noundef nonnull align 8 dereferenceable(32) %2) #4 comdat align 2 {
  %4 = alloca ptr, align 8
  %5 = alloca ptr, align 8
  %6 = alloca ptr, align 8
  store ptr %0, ptr %4, align 8
  store ptr %1, ptr %5, align 8, !tbaa !146
  store ptr %2, ptr %6, align 8, !tbaa !88
  %7 = load ptr, ptr %5, align 8
  %8 = getelementptr inbounds nuw %"class.dd::pdd", ptr %7, i32 0, i32 1
  %9 = load ptr, ptr %8, align 8, !tbaa !153
  %10 = load ptr, ptr %6, align 8, !tbaa !88
  call void @_ZN2dd11pdd_manager3mulERK8rationalRKNS_3pddE(ptr dead_on_unwind writable sret(%"class.dd::pdd") align 8 %0, ptr noundef nonnull align 8 dereferenceable(952) %9, ptr noundef nonnull align 8 dereferenceable(32) %10, ptr noundef nonnull align 8 dereferenceable(16) %7)
  ret void
}

; Function Attrs: mustprogress uwtable
define hidden void @_ZNK2dd3pdd3shlEj(ptr dead_on_unwind noalias writable sret(%"class.dd::pdd") align 8 %0, ptr noundef nonnull align 8 dereferenceable(16) %1, i32 noundef %2) #4 align 2 personality ptr @__gxx_personality_v0 {
  %4 = alloca ptr, align 8
  %5 = alloca ptr, align 8
  %6 = alloca i32, align 4
  %7 = alloca %class.rational, align 8
  %8 = alloca ptr, align 8
  %9 = alloca i32, align 4
  store ptr %0, ptr %4, align 8
  store ptr %1, ptr %5, align 8, !tbaa !146
  store i32 %2, ptr %6, align 4, !tbaa !8
  %10 = load ptr, ptr %5, align 8
  call void @llvm.lifetime.start.p0(i64 32, ptr %7) #3
  %11 = load i32, ptr %6, align 4, !tbaa !8
  call void @_ZN8rational12power_of_twoEj(ptr dead_on_unwind writable sret(%class.rational) align 8 %7, i32 noundef %11)
  invoke void @_ZNK2dd3pddmlERK8rational(ptr dead_on_unwind writable sret(%"class.dd::pdd") align 8 %0, ptr noundef nonnull align 8 dereferenceable(16) %10, ptr noundef nonnull align 8 dereferenceable(32) %7)
          to label %12 unwind label %13

12:                                               ; preds = %3
  call void @_ZN8rationalD2Ev(ptr noundef nonnull align 8 dereferenceable(32) %7) #3
  call void @llvm.lifetime.end.p0(i64 32, ptr %7) #3
  ret void

13:                                               ; preds = %3
  %14 = landingpad { ptr, i32 }
          cleanup
  %15 = extractvalue { ptr, i32 } %14, 0
  store ptr %15, ptr %8, align 8
  %16 = extractvalue { ptr, i32 } %14, 1
  store i32 %16, ptr %9, align 4
  call void @_ZN8rationalD2Ev(ptr noundef nonnull align 8 dereferenceable(32) %7) #3
  call void @llvm.lifetime.end.p0(i64 32, ptr %7) #3
  br label %17

17:                                               ; preds = %13
  %18 = load ptr, ptr %8, align 8
  %19 = load i32, ptr %9, align 4
  %20 = insertvalue { ptr, i32 } poison, ptr %18, 0
  %21 = insertvalue { ptr, i32 } %20, i32 %19, 1
  resume { ptr, i32 } %21
}