; Function Attrs: mustprogress uwtable
define hidden void @_ZNK2dd3pdd3shlEj(ptr dead_on_unwind noalias writable writeonly sret(%"class.dd::pdd") align 8 captures(none) %0, ptr noundef nonnull readonly align 8 captures(none) dereferenceable(16) %1, i32 noundef %2) local_unnamed_addr #3 align 2 personality ptr @__gxx_personality_v0 {
  %4 = alloca %class.rational, align 8
  call void @llvm.lifetime.start.p0(i64 32, ptr nonnull %4) #29
  call void @_ZN8rational12power_of_twoEj(ptr dead_on_unwind nonnull writable sret(%class.rational) align 8 %4, i32 noundef %2)
  %5 = getelementptr inbounds nuw i8, ptr %1, i64 8
  %6 = load ptr, ptr %5, align 8, !tbaa !122, !noalias !542
  invoke void @_ZN2dd11pdd_manager3mulERK8rationalRKNS_3pddE(ptr dead_on_unwind writable sret(%"class.dd::pdd") align 8 %0, ptr noundef nonnull align 8 dereferenceable(952) %6, ptr noundef nonnull align 8 dereferenceable(32) %4, ptr noundef nonnull align 8 dereferenceable(16) %1)
          to label %_ZNK2dd3pddmlERK8rational.exit unwind label %12

_ZNK2dd3pddmlERK8rational.exit:                   ; preds = %3
  %7 = load ptr, ptr @_ZN8rational13g_mpq_managerE, align 8, !tbaa !85
  invoke void @_ZN11mpz_managerILb1EE3delEPS0_R3mpz(ptr noundef %7, ptr noundef nonnull align 8 dereferenceable(32) %4)
          to label %.noexc.i unwind label %9

.noexc.i:                                         ; preds = %_ZNK2dd3pddmlERK8rational.exit
  %8 = getelementptr inbounds nuw i8, ptr %4, i64 16
  invoke void @_ZN11mpz_managerILb1EE3delEPS0_R3mpz(ptr noundef %7, ptr noundef nonnull align 8 dereferenceable(16) %8)
          to label %_ZN8rationalD2Ev.exit unwind label %9

9:                                                ; preds = %.noexc.i, %_ZNK2dd3pddmlERK8rational.exit
  %10 = landingpad { ptr, i32 }
          catch ptr null
  %11 = extractvalue { ptr, i32 } %10, 0
  call void @__clang_call_terminate(ptr %11) #30
  unreachable

_ZN8rationalD2Ev.exit:                            ; preds = %.noexc.i
  call void @llvm.lifetime.end.p0(i64 32, ptr nonnull %4) #29
  ret void

12:                                               ; preds = %3
  %13 = landingpad { ptr, i32 }
          cleanup
  call void @_ZN8rationalD2Ev(ptr noundef nonnull align 8 dereferenceable(32) %4) #29
  call void @llvm.lifetime.end.p0(i64 32, ptr nonnull %4) #29
  resume { ptr, i32 } %13
}